target datalayout = "e-m:e-p270:32:32-p271:32:32-p272:64:64-i64:64-i128:128-f80:128-n8:16:32:64-S128"
target triple = "x86_64-pc-linux-gnu"

@.str.46 = private unnamed_addr constant [26 x i8] c"too many nested functions\00", align 1
@.str.47 = private unnamed_addr constant [37 x i8] c"reader function must return a string\00", align 1

; Function Attrs: nounwind uwtable
define internal ptr @generic_reader(ptr noundef %0, ptr noundef %1, ptr noundef %2) #0 {
  %4 = alloca ptr, align 8
  %5 = alloca ptr, align 8
  %6 = alloca ptr, align 8
  %7 = alloca ptr, align 8
  store ptr %0, ptr %5, align 8, !tbaa !4
  store ptr %1, ptr %6, align 8, !tbaa !20
  store ptr %2, ptr %7, align 8, !tbaa !21
  %8 = load ptr, ptr %5, align 8, !tbaa !4
  call void @luaL_checkstack(ptr noundef %8, i32 noundef 2, ptr noundef @.str.46)
  %9 = load ptr, ptr %5, align 8, !tbaa !4
  call void @lua_pushvalue(ptr noundef %9, i32 noundef 1)
  %10 = load ptr, ptr %5, align 8, !tbaa !4
  call void @lua_callk(ptr noundef %10, i32 noundef 0, i32 noundef 1, i64 noundef 0, ptr noundef null)
  %11 = load ptr, ptr %5, align 8, !tbaa !4
  %12 = call i32 @lua_type(ptr noundef %11, i32 noundef -1)
  %13 = icmp eq i32 %12, 0
  br i1 %13, label %14, label %17

14:                                               ; preds = %3
  %15 = load ptr, ptr %5, align 8, !tbaa !4
  call void @lua_settop(ptr noundef %15, i32 noundef -2)
  %16 = load ptr, ptr %7, align 8, !tbaa !21
  store i64 0, ptr %16, align 8, !tbaa !16
  store ptr null, ptr %4, align 8
  br label %38

17:                                               ; preds = %3
  %18 = load ptr, ptr %5, align 8, !tbaa !4
  %19 = call i32 @lua_isstring(ptr noundef %18, i32 noundef -1)
  %20 = icmp ne i32 %19, 0
  %21 = xor i1 %20, true
  %22 = zext i1 %21 to i32
  %23 = icmp ne i32 %22, 0
  %24 = zext i1 %23 to i32
  %25 = sext i32 %24 to i64
  %26 = call i64 @llvm.expect.i64(i64 %25, i64 0)
  %27 = icmp ne i64 %26, 0
  br i1 %27, label %28, label %31

28:                                               ; preds = %17
  %29 = load ptr, ptr %5, align 8, !tbaa !4
  %30 = call i32 (ptr, ptr, ...) @luaL_error(ptr noundef %29, ptr noundef @.str.47)
  br label %31

31:                                               ; preds = %28, %17
  br label %32

32:                                               ; preds = %31
  %33 = load ptr, ptr %5, align 8, !tbaa !4
  call void @lua_copy(ptr noundef %33, i32 noundef -1, i32 noundef 5)
  %34 = load ptr, ptr %5, align 8, !tbaa !4
  call void @lua_settop(ptr noundef %34, i32 noundef -2)
  %35 = load ptr, ptr %5, align 8, !tbaa !4
  %36 = load ptr, ptr %7, align 8, !tbaa !21
  %37 = call ptr @lua_tolstring(ptr noundef %35, i32 noundef 5, ptr noundef %36)
  store ptr %37, ptr %4, align 8
  br label %38

38:                                               ; preds = %32, %14
  %39 = load ptr, ptr %4, align 8
  ret ptr %39
}