; Function Attrs: nounwind uwtable
define internal ptr @generic_reader(ptr noundef %0, ptr readnone captures(none) %1, ptr noundef %2) #0 {
  tail call void @luaL_checkstack(ptr noundef %0, i32 noundef 2, ptr noundef nonnull @.str.46) #9
  tail call void @lua_pushvalue(ptr noundef %0, i32 noundef 1) #9
  tail call void @lua_callk(ptr noundef %0, i32 noundef 0, i32 noundef 1, i64 noundef 0, ptr noundef null) #9
  %4 = tail call i32 @lua_type(ptr noundef %0, i32 noundef -1) #9
  %5 = icmp eq i32 %4, 0
  br i1 %5, label %6, label %7

6:                                                ; preds = %3
  tail call void @lua_settop(ptr noundef %0, i32 noundef -2) #9
  store i64 0, ptr %2, align 8, !tbaa !9
  br label %13

7:                                                ; preds = %3
  %8 = tail call i32 @lua_isstring(ptr noundef %0, i32 noundef -1) #9
  %.not = icmp eq i32 %8, 0
  br i1 %.not, label %9, label %11, !prof !4

9:                                                ; preds = %7
  %10 = tail call i32 (ptr, ptr, ...) @luaL_error(ptr noundef %0, ptr noundef nonnull @.str.47) #9
  br label %11

11:                                               ; preds = %7, %9
  tail call void @lua_copy(ptr noundef %0, i32 noundef -1, i32 noundef 5) #9
  tail call void @lua_settop(ptr noundef %0, i32 noundef -2) #9
  %12 = tail call ptr @lua_tolstring(ptr noundef %0, i32 noundef 5, ptr noundef %2) #9
  br label %13

13:                                               ; preds = %11, %6
  %.0 = phi ptr [ null, %6 ], [ %12, %11 ]
  ret ptr %.0
}